; Function Attrs: nounwind uwtable
define range(i32 -20, 1) i32 @IDASetNlsResFn(ptr noundef captures(address_is_null) %0, ptr noundef %1) local_unnamed_addr #0 {
  %3 = icmp eq ptr %0, null
  br i1 %3, label %4, label %5

4:                                                ; preds = %2
  tail call void (ptr, i32, i32, ptr, ptr, ptr, ...) @IDAProcessError(ptr noundef null, i32 noundef -20, i32 noundef 143, ptr noundef nonnull @__func__.IDASetNlsResFn, ptr noundef nonnull @.str, ptr noundef nonnull @.str.1) #3
  br label %12

5:                                                ; preds = %2
  %.not = icmp eq ptr %1, null
  br i1 %.not, label %8, label %6

6:                                                ; preds = %5
  %7 = getelementptr inbounds nuw i8, ptr %0, i64 1840
  store ptr %1, ptr %7, align 8, !tbaa !27
  br label %12

8:                                                ; preds = %5
  %9 = getelementptr inbounds nuw i8, ptr %0, i64 16
  %10 = load ptr, ptr %9, align 8, !tbaa !26
  %11 = getelementptr inbounds nuw i8, ptr %0, i64 1840
  store ptr %10, ptr %11, align 8, !tbaa !27
  br label %12

12:                                               ; preds = %6, %8, %4
  %.0 = phi i32 [ -20, %4 ], [ 0, %8 ], [ 0, %6 ]
  ret i32 %.0
}